target datalayout = "e-m:e-p270:32:32-p271:32:32-p272:64:64-i64:64-i128:128-f80:128-n8:16:32:64-S128"
target triple = "x86_64-pc-linux-gnu"

%struct.t_blocka = type { i32, ptr, i32, ptr, i32, i32 }

@.str = private unnamed_addr constant [13 x i8] c"block->index\00", align 1
@.str.1 = private unnamed_addr constant [124 x i8] c"generated/home/dtcxzyw/WorkSpace/Projects/compilers/llvm-opt-benchmark/bench/gromacs/gromacs/src/gromacs/topology/block.cpp\00", align 1

; Function Attrs: inlinehint mustprogress uwtable
define internal void @_ZL13gmx_snew_implIiEvPKcS1_iRPT_m(ptr noundef %0, ptr noundef %1, i32 noundef %2, ptr noundef nonnull align 8 dereferenceable(8) %3, i64 noundef %4) #1 {
  %6 = alloca ptr, align 8
  %7 = alloca ptr, align 8
  %8 = alloca i32, align 4
  %9 = alloca ptr, align 8
  %10 = alloca i64, align 8
  store ptr %0, ptr %6, align 8, !tbaa !16
  store ptr %1, ptr %7, align 8, !tbaa !16
  store i32 %2, ptr %8, align 4, !tbaa !15
  store ptr %3, ptr %9, align 8, !tbaa !18
  store i64 %4, ptr %10, align 8, !tbaa !21
  %11 = load ptr, ptr %6, align 8, !tbaa !16
  %12 = load ptr, ptr %7, align 8, !tbaa !16
  %13 = load i32, ptr %8, align 4, !tbaa !15
  %14 = load i64, ptr %10, align 8, !tbaa !21
  %15 = call noundef ptr @_Z11save_callocPKcS0_imm(ptr noundef %11, ptr noundef %12, i32 noundef %13, i64 noundef %14, i64 noundef 4)
  %16 = load ptr, ptr %9, align 8, !tbaa !18
  store ptr %15, ptr %16, align 8, !tbaa !23
  ret void
}

; Function Attrs: mustprogress uwtable
define void @_Z11init_blockaP8t_blocka(ptr noundef %0) #0 {
  %2 = alloca ptr, align 8
  store ptr %0, ptr %2, align 8, !tbaa !24
  %3 = load ptr, ptr %2, align 8, !tbaa !24
  %4 = getelementptr inbounds nuw %struct.t_blocka, ptr %3, i32 0, i32 0
  store i32 0, ptr %4, align 8, !tbaa !26
  %5 = load ptr, ptr %2, align 8, !tbaa !24
  %6 = getelementptr inbounds nuw %struct.t_blocka, ptr %5, i32 0, i32 2
  store i32 0, ptr %6, align 8, !tbaa !28
  %7 = load ptr, ptr %2, align 8, !tbaa !24
  %8 = getelementptr inbounds nuw %struct.t_blocka, ptr %7, i32 0, i32 4
  store i32 1, ptr %8, align 8, !tbaa !29
  %9 = load ptr, ptr %2, align 8, !tbaa !24
  %10 = getelementptr inbounds nuw %struct.t_blocka, ptr %9, i32 0, i32 1
  %11 = load ptr, ptr %2, align 8, !tbaa !24
  %12 = getelementptr inbounds nuw %struct.t_blocka, ptr %11, i32 0, i32 4
  %13 = load i32, ptr %12, align 8, !tbaa !29
  %14 = sext i32 %13 to i64
  call void @_ZL13gmx_snew_implIiEvPKcS1_iRPT_m(ptr noundef @.str, ptr noundef @.str.1, i32 noundef 64, ptr noundef nonnull align 8 dereferenceable(8) %10, i64 noundef %14)
  %15 = load ptr, ptr %2, align 8, !tbaa !24
  %16 = getelementptr inbounds nuw %struct.t_blocka, ptr %15, i32 0, i32 1
  %17 = load ptr, ptr %16, align 8, !tbaa !30
  %18 = getelementptr inbounds i32, ptr %17, i64 0
  store i32 0, ptr %18, align 4, !tbaa !15
  %19 = load ptr, ptr %2, align 8, !tbaa !24
  %20 = getelementptr inbounds nuw %struct.t_blocka, ptr %19, i32 0, i32 5
  store i32 0, ptr %20, align 4, !tbaa !31
  %21 = load ptr, ptr %2, align 8, !tbaa !24
  %22 = getelementptr inbounds nuw %struct.t_blocka, ptr %21, i32 0, i32 3
  store ptr null, ptr %22, align 8, !tbaa !32
  ret void
}