; Function Attrs: mustprogress uwtable
define void @_Z11init_blockaP8t_blocka(ptr noundef writeonly captures(none) initializes((0, 4), (8, 20), (24, 40)) %0) local_unnamed_addr #0 {
  store i32 0, ptr %0, align 8, !tbaa !14
  %2 = getelementptr inbounds nuw i8, ptr %0, i64 16
  store i32 0, ptr %2, align 8, !tbaa !16
  %3 = getelementptr inbounds nuw i8, ptr %0, i64 32
  store i32 1, ptr %3, align 8, !tbaa !17
  %4 = getelementptr inbounds nuw i8, ptr %0, i64 8
  %5 = tail call noundef ptr @_Z11save_callocPKcS0_imm(ptr noundef nonnull @.str, ptr noundef nonnull @.str.1, i32 noundef 64, i64 noundef 1, i64 noundef 4)
  store ptr %5, ptr %4, align 8, !tbaa !12
  store i32 0, ptr %5, align 4, !tbaa !13
  %6 = getelementptr inbounds nuw i8, ptr %0, i64 36
  store i32 0, ptr %6, align 4, !tbaa !18
  %7 = getelementptr inbounds nuw i8, ptr %0, i64 24
  store ptr null, ptr %7, align 8, !tbaa !19
  ret void
}